UASM v2.47, Nov 17 2018, Masm-compatible assembler.

coldboot.asm
                                ; coldboot.asm

                                                name    coldboot

                                DGROUP          group   _TEXT,CONST,_DATA,_BSS,STACK

00000000                        _TEXT           segment para public 'CODE'
                                                assume  cs:_TEXT,ds:nothing,es:nothing,ss:nothing

                                                org     100h

00000100                        _start          proc    far

                                                ; Check for being loaded org 0 instead of 100h
00000100                        l001:
00000100  E80400                                call    l002
00000103  00000000                              dw      0,0
00000107  5B                    l002:           pop     bx
00000108  81FB00FF                              cmp     bx,(offset l002)-100h ; Is it 100h off?
0000010C  751D                                  jnz     l003
0000010E  81FB0000                              cmp     bx,offset l002 ; Is it correct?
00000112  7403                                  jz      l004    ; If not, don't
00000114  F4                    l005:           hlt             ; continue
00000115  EBFD                                  jmp     l005
00000117  83EB04                l004:           sub     bx,4
0000011A  2EC7070000                            mov     word ptr cs:[bx],offset l001
0000011F  8CC8                                  mov     ax,cs
00000121  83E810                                sub     ax,10h  ; Move 10h paragraphs back (100h bytes)
00000124  2E894702                              mov     cs:[bx+2],ax
00000128  2EFF2F                                jmp     dword ptr cs:[bx]
0000012B                        l003:
                                                ; Set up our own stack
0000012B  8CCA                                  mov     dx,cs
0000012D  BB0000                                mov     bx,offset _stack_top
00000130  FA                                    cli
00000131  8ED2                                  mov     ss,dx
                                                assume  ss:DGROUP
00000133  8BE3                                  mov     sp,bx
00000135  B802F2                                mov     ax,0f202h ; V0 D0 I1 T0 S0 Z0 A0 P0 C0
00000138  50                                    push    ax
00000139  9D                                    popf
0000013A  8EC2                                  mov     es,dx
                                                assume  es:DGROUP

                                                ; Wipe out from stack end through next 64kB boundary
0000013C  BF0000                                mov     di,offset _stack_end
                                                ; If stack top isn't paragraph aligned, wipe out the
                                                ; rest of the paragraph first
0000013F  B040                                  mov     al,'@'
00000141  F7C70F00              align_para:     test    di,0fh
00000145  750D                                  jnz     stack_aligned
00000147  AA                                    stosb
                                                ; Check for crossing a 64kB boundary
00000148  0BFF                                  or      di,di
0000014A  75F5                                  jnz     align_para
0000014C  81C20010                              add     dx,1000h
00000150  8EC2                                  mov     es,dx
00000152  EBED                                  jmp     align_para
                                                ; ES:DI is now paragraph aligned, so normalise ES:DI
                                                ; to ES:0.
00000154  8CC1                  stack_aligned:  mov     cx,es
00000156  D1EF                                  shr     di,1
00000158  D1EF                                  shr     di,1
0000015A  D1EF                                  shr     di,1
0000015C  D1EF                                  shr     di,1
0000015E  03CF                                  add     cx,di
00000160  8EC1                                  mov     es,cx
00000162  33FF                                  xor     di,di
                                                ; Now compute how many paragraphs until the next
                                                ; 64kB bank.
00000164  81E1FF0F                              and     cx,0fffh
                                                ; Turn number of paragraphs into words (* 8).
00000168  D1E1                                  shl     cx,1
0000016A  D1E1                                  shl     cx,1
0000016C  D1E1                                  shl     cx,1
                                                ; Blank out the rest of the bank.
0000016E  B82425                                mov     ax,2524h   ; '$#'
00000171  F3AB                                  rep     stosw
                                                ; Normalise ES:DI again. It will be on a bank
                                                ; boundary.
00000173  8CC0                                  mov     ax,es
00000175  2500F0                                and     ax,0f000h
00000178  050010                next_bank:      add     ax,1000h
0000017B  8EC3                                  mov     es,bx
0000017D  33FF                                  xor     di,di
0000017F  3D00C0                                cmp     ax,0c000h
00000182  730C                                  jae     banks_done
00000184  B90080                                mov     cx,8000h    ; Store 32k words
00000187  B82627                                mov     ax,2726h    ; '%^'
0000018A  F3AB                                  rep     stosw
0000018C  8CC0                                  mov     ax,es
0000018E  EBE8                                  jmp     next_bank
                                                
00000190                        banks_done:     ; If we have our signature at 472h, just
                                                ; execute int 67h to return to the monitor.
                                                ; This catches if attemptes to cold boot
                                                ; result in immediately running this program
                                                ; again.
00000190  33C0                                  xor     ax,ax
00000192  8ED8                                  mov     ds,ax
00000194  BB7204                                mov     bx,472h
00000197  BAEFBE                                mov     dx,0beefh
0000019A  3917                                  cmp     ds:[bx],dx
0000019C  7509                                  jne     do_coldboot
                                                ; Get rid of our signature
0000019E  8907                                  mov     ds:[bx],ax
000001A0  33C0                                  xor     ax,ax
000001A2  CD67                                  int     67h
000001A4  CD20                                  int     20h
000001A6                                        ret
000001A7                        do_coldboot:    ; Otherwise, try to cold boot
000001A7  8917                                  mov     ds:[bx],dx      ; Clear out a 1234h signature
000001A9                                        ret
                                        
000001AA                        _start          endp

000001AA                        _TEXT           ends

00000000                        CONST           segment para public 'CONST'
00000000                        CONST           ends

00000000                        _DATA           segment para public 'DATA'
00000000                        _DATA           ends

00000000                        _BSS            segment para public 'BSS'
00000000                        _BSS            ends

                                ; Stack is 256 bytes
00000000                        STACK           segment para stack 'STACK'

00000000  535441434B21212153                    db      30 dup ('STACK!!!')
                                ;                dw      0,-1,0f202h ; equivalent to JMP FAR 0FFFFh:0
000000F0  = F0                  _stack_top      equ     $
000000F0  535441434B212121                      db      'STACK!!!'
000000F8  = F8                  _stack_end      equ     $
000000F8  535441434B454E44                      db      'STACKEND'

                                ; Pattern afer this will be '@@@@#$#$#$#$%^%^%^'

00000100                        STACK           ends

                                                end     _start


Binary Map:

Segment                  Pos(file)     RVA  Size(fil) Size(mem)
---------------------------------------------------------------
_TEXT                           0      100        AA        AA
CONST                          B0      1B0         0         0
_DATA                          B0      1B0         0         0
_BSS                           B0      1B0         0         0
STACK                          B0      1B0       100       100
---------------------------------------------------------------
                                                 1B0       1B0


Macros:

                N a m e                 Type

@CatStr  . . . . . . . . . . . .        Func
@Environ . . . . . . . . . . . .        Func
@InStr . . . . . . . . . . . . .        Func
@SizeStr . . . . . . . . . . . .        Func
@SubStr  . . . . . . . . . . . .        Func
ASDOUBLE . . . . . . . . . . . .        Func
ASFLOAT  . . . . . . . . . . . .        Func
CLASS  . . . . . . . . . . . . .        Proc
CMETHOD  . . . . . . . . . . . .        Proc
COMINTERFACE . . . . . . . . . .        Proc
CSTATIC  . . . . . . . . . . . .        Proc
CSTR . . . . . . . . . . . . . .        Func
CVIRTUAL . . . . . . . . . . . .        Proc
ENDCLASS . . . . . . . . . . . .        Proc
ENDCOMINTERFACE  . . . . . . . .        Proc
ENDMETHOD  . . . . . . . . . . .        Proc
ENDMETHODS . . . . . . . . . . .        Proc
ENDOINTERFACE  . . . . . . . . .        Proc
EXPAND_PREFIX  . . . . . . . . .        Func
FP10 . . . . . . . . . . . . . .        Func
FP4  . . . . . . . . . . . . . .        Func
FP8  . . . . . . . . . . . . . .        Func
GETMASK128 . . . . . . . . . . .        Proc
LOADMSD  . . . . . . . . . . . .        Proc
LOADMSS  . . . . . . . . . . . .        Proc
LOADPS . . . . . . . . . . . . .        Proc
LOADSD . . . . . . . . . . . . .        Proc
LOADSS . . . . . . . . . . . . .        Proc
MEMALIGN . . . . . . . . . . . .        Proc
MEMALLOC . . . . . . . . . . . .        Proc
MEMFREE  . . . . . . . . . . . .        Proc
METHOD . . . . . . . . . . . . .        Proc
MOV128 . . . . . . . . . . . . .        Proc
MOV64  . . . . . . . . . . . . .        Proc
MOVXMMR128 . . . . . . . . . . .        Proc
NOTMASK128 . . . . . . . . . . .        Proc
OINTERFACE . . . . . . . . . . .        Proc
R4P  . . . . . . . . . . . . . .        Func
R8P  . . . . . . . . . . . . . .        Func
REGS15STORAGE  . . . . . . . . .        Proc
REPARG . . . . . . . . . . . . .        Func
RV . . . . . . . . . . . . . . .        Func
SHIFTLEFT128 . . . . . . . . . .        Proc
SHIFTRIGHT128  . . . . . . . . .        Proc
SLXMMR . . . . . . . . . . . . .        Proc
SRXMMR . . . . . . . . . . . . .        Proc
STATICMETHOD . . . . . . . . . .        Proc
STATICVECMETHOD  . . . . . . . .        Proc
UINVOKE  . . . . . . . . . . . .        Func
VECMETHOD  . . . . . . . . . . .        Proc
WSTR . . . . . . . . . . . . . .        Func
_ARRAY . . . . . . . . . . . . .        Func
_DECLARE . . . . . . . . . . . .        Proc
_DELETE  . . . . . . . . . . . .        Proc
_DELETEARRAY . . . . . . . . . .        Proc
_DEREF . . . . . . . . . . . . .        Proc
_DEREFI  . . . . . . . . . . . .        Func
_I . . . . . . . . . . . . . . .        Func
_INVOKE  . . . . . . . . . . . .        Proc
_ITEM  . . . . . . . . . . . . .        Func
_ITEMR . . . . . . . . . . . . .        Func
_NEW . . . . . . . . . . . . . .        Func
_RBXNEW  . . . . . . . . . . . .        Func
_SINVOKE . . . . . . . . . . . .        Proc
_STATIC  . . . . . . . . . . . .        Func
_STATICREF . . . . . . . . . . .        Proc
_V . . . . . . . . . . . . . . .        Func
_VINVOKE . . . . . . . . . . . .        Proc
arginvoke  . . . . . . . . . . .        Func


Structures and Unions:

                N a m e                 Size/Ofs   Type

__m128 . . . . . . . . . . . . .              10
  f32  . . . . . . . . . . . . .               0   __m128f
  i8 . . . . . . . . . . . . . .               0   __m128b
  i16  . . . . . . . . . . . . .               0   __m128w
  i32  . . . . . . . . . . . . .               0   __m128i
  d64  . . . . . . . . . . . . .               0   __m128d
  q64  . . . . . . . . . . . . .               0   __m128q
__m128b  . . . . . . . . . . . .              10
  b0 . . . . . . . . . . . . . .               0   Byte
  b1 . . . . . . . . . . . . . .               1   Byte
  b2 . . . . . . . . . . . . . .               2   Byte
  b3 . . . . . . . . . . . . . .               3   Byte
  b4 . . . . . . . . . . . . . .               4   Byte
  b5 . . . . . . . . . . . . . .               5   Byte
  b6 . . . . . . . . . . . . . .               6   Byte
  b7 . . . . . . . . . . . . . .               7   Byte
  b8 . . . . . . . . . . . . . .               8   Byte
  b9 . . . . . . . . . . . . . .               9   Byte
  b10  . . . . . . . . . . . . .               A   Byte
  b11  . . . . . . . . . . . . .               B   Byte
  b12  . . . . . . . . . . . . .               C   Byte
  b13  . . . . . . . . . . . . .               D   Byte
  b14  . . . . . . . . . . . . .               E   Byte
  b15  . . . . . . . . . . . . .               F   Byte
__m128d  . . . . . . . . . . . .              10
  d0 . . . . . . . . . . . . . .               0   
  d1 . . . . . . . . . . . . . .               8   
__m128f  . . . . . . . . . . . .              10
  f0 . . . . . . . . . . . . . .               0   
  f1 . . . . . . . . . . . . . .               4   
  f2 . . . . . . . . . . . . . .               8   
  f3 . . . . . . . . . . . . . .               C   
__m128i  . . . . . . . . . . . .              10
  i0 . . . . . . . . . . . . . .               0   DWord
  i1 . . . . . . . . . . . . . .               4   DWord
  i2 . . . . . . . . . . . . . .               8   DWord
  i3 . . . . . . . . . . . . . .               C   DWord
__m128q  . . . . . . . . . . . .              10
  q0 . . . . . . . . . . . . . .               0   QWord
  q1 . . . . . . . . . . . . . .               8   QWord
__m128w  . . . . . . . . . . . .              10
  w0 . . . . . . . . . . . . . .               0   Word
  w1 . . . . . . . . . . . . . .               2   Word
  w2 . . . . . . . . . . . . . .               4   Word
  w3 . . . . . . . . . . . . . .               6   Word
  w4 . . . . . . . . . . . . . .               8   Word
  w5 . . . . . . . . . . . . . .               A   Word
  w6 . . . . . . . . . . . . . .               C   Word
  w7 . . . . . . . . . . . . . .               E   Word
__m256 . . . . . . . . . . . . .              20
  f32  . . . . . . . . . . . . .               0   __m256f
  i8 . . . . . . . . . . . . . .               0   __m256b
  i16  . . . . . . . . . . . . .               0   __m256w
  i32  . . . . . . . . . . . . .               0   __m256i
  d64  . . . . . . . . . . . . .               0   __m256d
  q64  . . . . . . . . . . . . .               0   __m256q
__m256b  . . . . . . . . . . . .              20
  b0 . . . . . . . . . . . . . .               0   Byte
  b1 . . . . . . . . . . . . . .               1   Byte
  b2 . . . . . . . . . . . . . .               2   Byte
  b3 . . . . . . . . . . . . . .               3   Byte
  b4 . . . . . . . . . . . . . .               4   Byte
  b5 . . . . . . . . . . . . . .               5   Byte
  b6 . . . . . . . . . . . . . .               6   Byte
  b7 . . . . . . . . . . . . . .               7   Byte
  b8 . . . . . . . . . . . . . .               8   Byte
  b9 . . . . . . . . . . . . . .               9   Byte
  b10  . . . . . . . . . . . . .               A   Byte
  b11  . . . . . . . . . . . . .               B   Byte
  b12  . . . . . . . . . . . . .               C   Byte
  b13  . . . . . . . . . . . . .               D   Byte
  b14  . . . . . . . . . . . . .               E   Byte
  b15  . . . . . . . . . . . . .               F   Byte
  b16  . . . . . . . . . . . . .              10   Byte
  b17  . . . . . . . . . . . . .              11   Byte
  b18  . . . . . . . . . . . . .              12   Byte
  b19  . . . . . . . . . . . . .              13   Byte
  b20  . . . . . . . . . . . . .              14   Byte
  b21  . . . . . . . . . . . . .              15   Byte
  b22  . . . . . . . . . . . . .              16   Byte
  b23  . . . . . . . . . . . . .              17   Byte
  b24  . . . . . . . . . . . . .              18   Byte
  b25  . . . . . . . . . . . . .              19   Byte
  b26  . . . . . . . . . . . . .              1A   Byte
  b27  . . . . . . . . . . . . .              1B   Byte
  b28  . . . . . . . . . . . . .              1C   Byte
  b29  . . . . . . . . . . . . .              1D   Byte
  b30  . . . . . . . . . . . . .              1E   Byte
  b31  . . . . . . . . . . . . .              1F   Byte
__m256d  . . . . . . . . . . . .              20
  d0 . . . . . . . . . . . . . .               0   
  d1 . . . . . . . . . . . . . .               8   
  d2 . . . . . . . . . . . . . .              10   
  d3 . . . . . . . . . . . . . .              18   
__m256f  . . . . . . . . . . . .              20
  f0 . . . . . . . . . . . . . .               0   
  f1 . . . . . . . . . . . . . .               4   
  f2 . . . . . . . . . . . . . .               8   
  f3 . . . . . . . . . . . . . .               C   
  f4 . . . . . . . . . . . . . .              10   
  f5 . . . . . . . . . . . . . .              14   
  f6 . . . . . . . . . . . . . .              18   
  f7 . . . . . . . . . . . . . .              1C   
__m256i  . . . . . . . . . . . .              20
  i0 . . . . . . . . . . . . . .               0   DWord
  i1 . . . . . . . . . . . . . .               4   DWord
  i2 . . . . . . . . . . . . . .               8   DWord
  i3 . . . . . . . . . . . . . .               C   DWord
  i4 . . . . . . . . . . . . . .              10   DWord
  i5 . . . . . . . . . . . . . .              14   DWord
  i6 . . . . . . . . . . . . . .              18   DWord
  i7 . . . . . . . . . . . . . .              1C   DWord
__m256q  . . . . . . . . . . . .              20
  q0 . . . . . . . . . . . . . .               0   QWord
  q1 . . . . . . . . . . . . . .               8   QWord
  q2 . . . . . . . . . . . . . .              10   QWord
  q3 . . . . . . . . . . . . . .              18   QWord
__m256w  . . . . . . . . . . . .              20
  w0 . . . . . . . . . . . . . .               0   Word
  w1 . . . . . . . . . . . . . .               2   Word
  w2 . . . . . . . . . . . . . .               4   Word
  w3 . . . . . . . . . . . . . .               6   Word
  w4 . . . . . . . . . . . . . .               8   Word
  w5 . . . . . . . . . . . . . .               A   Word
  w6 . . . . . . . . . . . . . .               C   Word
  w7 . . . . . . . . . . . . . .               E   Word
  w8 . . . . . . . . . . . . . .              10   Word
  w9 . . . . . . . . . . . . . .              12   Word
  w10  . . . . . . . . . . . . .              14   Word
  w11  . . . . . . . . . . . . .              16   Word
  w12  . . . . . . . . . . . . .              18   Word
  w13  . . . . . . . . . . . . .              1A   Word
  w14  . . . . . . . . . . . . .              1C   Word
  w15  . . . . . . . . . . . . .              1E   Word
__m512 . . . . . . . . . . . . .              40
  f32  . . . . . . . . . . . . .               0   __m512f
  i8 . . . . . . . . . . . . . .               0   __m512b
  i16  . . . . . . . . . . . . .               0   __m512w
  i32  . . . . . . . . . . . . .               0   __m512i
  d64  . . . . . . . . . . . . .               0   __m512d
  q64  . . . . . . . . . . . . .               0   __m512q
__m512b  . . . . . . . . . . . .              40
  b0 . . . . . . . . . . . . . .               0   Byte
  b1 . . . . . . . . . . . . . .               1   Byte
  b2 . . . . . . . . . . . . . .               2   Byte
  b3 . . . . . . . . . . . . . .               3   Byte
  b4 . . . . . . . . . . . . . .               4   Byte
  b5 . . . . . . . . . . . . . .               5   Byte
  b6 . . . . . . . . . . . . . .               6   Byte
  b7 . . . . . . . . . . . . . .               7   Byte
  b8 . . . . . . . . . . . . . .               8   Byte
  b9 . . . . . . . . . . . . . .               9   Byte
  b10  . . . . . . . . . . . . .               A   Byte
  b11  . . . . . . . . . . . . .               B   Byte
  b12  . . . . . . . . . . . . .               C   Byte
  b13  . . . . . . . . . . . . .               D   Byte
  b14  . . . . . . . . . . . . .               E   Byte
  b15  . . . . . . . . . . . . .               F   Byte
  b16  . . . . . . . . . . . . .              10   Byte
  b17  . . . . . . . . . . . . .              11   Byte
  b18  . . . . . . . . . . . . .              12   Byte
  b19  . . . . . . . . . . . . .              13   Byte
  b20  . . . . . . . . . . . . .              14   Byte
  b21  . . . . . . . . . . . . .              15   Byte
  b22  . . . . . . . . . . . . .              16   Byte
  b23  . . . . . . . . . . . . .              17   Byte
  b24  . . . . . . . . . . . . .              18   Byte
  b25  . . . . . . . . . . . . .              19   Byte
  b26  . . . . . . . . . . . . .              1A   Byte
  b27  . . . . . . . . . . . . .              1B   Byte
  b28  . . . . . . . . . . . . .              1C   Byte
  b29  . . . . . . . . . . . . .              1D   Byte
  b30  . . . . . . . . . . . . .              1E   Byte
  b31  . . . . . . . . . . . . .              1F   Byte
  b32  . . . . . . . . . . . . .              20   Byte
  b33  . . . . . . . . . . . . .              21   Byte
  b34  . . . . . . . . . . . . .              22   Byte
  b35  . . . . . . . . . . . . .              23   Byte
  b36  . . . . . . . . . . . . .              24   Byte
  b37  . . . . . . . . . . . . .              25   Byte
  b38  . . . . . . . . . . . . .              26   Byte
  b39  . . . . . . . . . . . . .              27   Byte
  b40  . . . . . . . . . . . . .              28   Byte
  b41  . . . . . . . . . . . . .              29   Byte
  b42  . . . . . . . . . . . . .              2A   Byte
  b43  . . . . . . . . . . . . .              2B   Byte
  b44  . . . . . . . . . . . . .              2C   Byte
  b45  . . . . . . . . . . . . .              2D   Byte
  b46  . . . . . . . . . . . . .              2E   Byte
  b47  . . . . . . . . . . . . .              2F   Byte
  b48  . . . . . . . . . . . . .              30   Byte
  b49  . . . . . . . . . . . . .              31   Byte
  b50  . . . . . . . . . . . . .              32   Byte
  b51  . . . . . . . . . . . . .              33   Byte
  b52  . . . . . . . . . . . . .              34   Byte
  b53  . . . . . . . . . . . . .              35   Byte
  b54  . . . . . . . . . . . . .              36   Byte
  b55  . . . . . . . . . . . . .              37   Byte
  b56  . . . . . . . . . . . . .              38   Byte
  b57  . . . . . . . . . . . . .              39   Byte
  b58  . . . . . . . . . . . . .              3A   Byte
  b59  . . . . . . . . . . . . .              3B   Byte
  b60  . . . . . . . . . . . . .              3C   Byte
  b61  . . . . . . . . . . . . .              3D   Byte
  b62  . . . . . . . . . . . . .              3E   Byte
  b63  . . . . . . . . . . . . .              3F   Byte
__m512d  . . . . . . . . . . . .              40
  d0 . . . . . . . . . . . . . .               0   
  d1 . . . . . . . . . . . . . .               8   
  d2 . . . . . . . . . . . . . .              10   
  d3 . . . . . . . . . . . . . .              18   
  d4 . . . . . . . . . . . . . .              20   
  d5 . . . . . . . . . . . . . .              28   
  d6 . . . . . . . . . . . . . .              30   
  d7 . . . . . . . . . . . . . .              38   
__m512f  . . . . . . . . . . . .              40
  f0 . . . . . . . . . . . . . .               0   
  f1 . . . . . . . . . . . . . .               4   
  f2 . . . . . . . . . . . . . .               8   
  f3 . . . . . . . . . . . . . .               C   
  f4 . . . . . . . . . . . . . .              10   
  f5 . . . . . . . . . . . . . .              14   
  f6 . . . . . . . . . . . . . .              18   
  f7 . . . . . . . . . . . . . .              1C   
  f8 . . . . . . . . . . . . . .              20   
  f9 . . . . . . . . . . . . . .              24   
  f10  . . . . . . . . . . . . .              28   
  f11  . . . . . . . . . . . . .              2C   
  f12  . . . . . . . . . . . . .              30   
  f13  . . . . . . . . . . . . .              34   
  f14  . . . . . . . . . . . . .              38   
  f15  . . . . . . . . . . . . .              3C   
__m512i  . . . . . . . . . . . .              40
  i0 . . . . . . . . . . . . . .               0   DWord
  i1 . . . . . . . . . . . . . .               4   DWord
  i2 . . . . . . . . . . . . . .               8   DWord
  i3 . . . . . . . . . . . . . .               C   DWord
  i4 . . . . . . . . . . . . . .              10   DWord
  i5 . . . . . . . . . . . . . .              14   DWord
  i6 . . . . . . . . . . . . . .              18   DWord
  i7 . . . . . . . . . . . . . .              1C   DWord
  i8 . . . . . . . . . . . . . .              20   DWord
  i9 . . . . . . . . . . . . . .              24   DWord
  i10  . . . . . . . . . . . . .              28   DWord
  i11  . . . . . . . . . . . . .              2C   DWord
  i12  . . . . . . . . . . . . .              30   DWord
  i13  . . . . . . . . . . . . .              34   DWord
  i14  . . . . . . . . . . . . .              38   DWord
  i15  . . . . . . . . . . . . .              3C   DWord
__m512q  . . . . . . . . . . . .              40
  q0 . . . . . . . . . . . . . .               0   QWord
  q1 . . . . . . . . . . . . . .               8   QWord
  q2 . . . . . . . . . . . . . .              10   QWord
  q3 . . . . . . . . . . . . . .              18   QWord
  q4 . . . . . . . . . . . . . .              20   QWord
  q5 . . . . . . . . . . . . . .              28   QWord
  q6 . . . . . . . . . . . . . .              30   QWord
  q7 . . . . . . . . . . . . . .              38   QWord
__m512w  . . . . . . . . . . . .              40
  w0 . . . . . . . . . . . . . .               0   Word
  w1 . . . . . . . . . . . . . .               2   Word
  w2 . . . . . . . . . . . . . .               4   Word
  w3 . . . . . . . . . . . . . .               6   Word
  w4 . . . . . . . . . . . . . .               8   Word
  w5 . . . . . . . . . . . . . .               A   Word
  w6 . . . . . . . . . . . . . .               C   Word
  w7 . . . . . . . . . . . . . .               E   Word
  w8 . . . . . . . . . . . . . .              10   Word
  w9 . . . . . . . . . . . . . .              12   Word
  w10  . . . . . . . . . . . . .              14   Word
  w11  . . . . . . . . . . . . .              16   Word
  w12  . . . . . . . . . . . . .              18   Word
  w13  . . . . . . . . . . . . .              1A   Word
  w14  . . . . . . . . . . . . .              1C   Word
  w15  . . . . . . . . . . . . .              1E   Word
  w16  . . . . . . . . . . . . .              20   Word
  w17  . . . . . . . . . . . . .              22   Word
  w18  . . . . . . . . . . . . .              24   Word
  w19  . . . . . . . . . . . . .              26   Word
  w20  . . . . . . . . . . . . .              28   Word
  w21  . . . . . . . . . . . . .              2A   Word
  w22  . . . . . . . . . . . . .              2C   Word
  w23  . . . . . . . . . . . . .              2E   Word
  w24  . . . . . . . . . . . . .              30   Word
  w25  . . . . . . . . . . . . .              32   Word
  w26  . . . . . . . . . . . . .              34   Word
  w27  . . . . . . . . . . . . .              36   Word
  w28  . . . . . . . . . . . . .              38   Word
  w29  . . . . . . . . . . . . .              3A   Word
  w30  . . . . . . . . . . . . .              3C   Word
  w31  . . . . . . . . . . . . .              3E   Word


Segments and Groups:

                N a m e                 Size     Length   Align   Combine Class

DGROUP . . . . . . . . . . . . .        GROUP
_TEXT  . . . . . . . . . . . . .        16 Bit   01AA     Para    Public  'CODE'
CONST  . . . . . . . . . . . . .        16 Bit   0000     Para    Public  'CONST'
_DATA  . . . . . . . . . . . . .        16 Bit   0000     Para    Public  'DATA'
_BSS . . . . . . . . . . . . . .        16 Bit   0000     Para    Public  'BSS'
STACK  . . . . . . . . . . . . .        16 Bit   0100     Para    Stack   'STACK'


Procedures, parameters and locals:

                N a m e                 Type     Value    Segment  Length

_start . . . . . . . . . . . . .        P Far    0100     _TEXT    00AA Public   
  l005 . . . . . . . . . . . . .        L Near   0114     _TEXT
  next_bank  . . . . . . . . . .        L Near   0178     _TEXT
  l003 . . . . . . . . . . . . .        L Near   012B     _TEXT
  banks_done . . . . . . . . . .        L Near   0190     _TEXT
  l001 . . . . . . . . . . . . .        L Near   0100     _TEXT
  do_coldboot  . . . . . . . . .        L Near   01A7     _TEXT
  l002 . . . . . . . . . . . . .        L Near   0107     _TEXT
  l004 . . . . . . . . . . . . .        L Near   0117     _TEXT
  align_para . . . . . . . . . .        L Near   0141     _TEXT
  stack_aligned  . . . . . . . .        L Near   0154     _TEXT


Symbols:

                N a m e                 Type       Value     Attr

_stack_end . . . . . . . . . . .        L Near            F8h STACK 
_stack_top . . . . . . . . . . .        L Near            F0h STACK 

coldboot.asm: 142 lines, 2 passes, 2274 ms, 0 warnings, 0 errors
